target datalayout = "e-m:e-p270:32:32-p271:32:32-p272:64:64-i64:64-i128:128-f80:128-n8:16:32:64-S128"
target triple = "x86_64-pc-linux-gnu"

%struct.PyVarObject = type { %struct._object, i64 }
%struct._object = type { %union.anon, ptr }
%union.anon = type { i64 }
%struct.anon = type { i32, i32 }
%struct.PyCodeLikeObject = type { %struct._object, ptr, i64, i32 }
%struct._typeobject = type { %struct.PyVarObject, ptr, i64, i64, ptr, i64, ptr, ptr, ptr, ptr, ptr, ptr, ptr, ptr, ptr, ptr, ptr, ptr, ptr, i64, ptr, ptr, ptr, ptr, i64, ptr, ptr, ptr, ptr, ptr, ptr, ptr, ptr, ptr, i64, ptr, ptr, ptr, ptr, ptr, ptr, ptr, ptr, ptr, ptr, ptr, i32, ptr, ptr, i8, i16 }
%struct._PyMonitoringState = type { i8, i8 }

@.str.28 = private unnamed_addr constant [3 x i8] c"Oi\00", align 1
@.str.29 = private unnamed_addr constant [17 x i8] c"PyErr_Occurred()\00", align 1
@.str.30 = private unnamed_addr constant [42 x i8] c"../cpython/Modules/_testcapi/monitoring.c\00", align 1
@__PRETTY_FUNCTION__.fire_event_py_start = private unnamed_addr constant [54 x i8] c"PyObject *fire_event_py_start(PyObject *, PyObject *)\00", align 1
@.str.31 = private unnamed_addr constant [18 x i8] c"!PyErr_Occurred()\00", align 1
@PyExc_TypeError = external global ptr, align 8
@.str.32 = private unnamed_addr constant [29 x i8] c"expected a code-like, got %s\00", align 1
@.str.33 = private unnamed_addr constant [39 x i8] c"offset >= 0 && offset < cl->num_events\00", align 1
@__PRETTY_FUNCTION__.setup_fire = private unnamed_addr constant [59 x i8] c"PyMonitoringState *setup_fire(PyObject *, int, PyObject *)\00", align 1
@__PRETTY_FUNCTION__.teardown_fire = private unnamed_addr constant [56 x i8] c"int teardown_fire(int, PyMonitoringState *, PyObject *)\00", align 1
@.str.34 = private unnamed_addr constant [52 x i8] c"((PyObject*)Py_TYPE(exception)) == PyErr_Occurred()\00", align 1

; Function Attrs: alwaysinline nounwind uwtable
define internal void @Py_INCREF(ptr noundef %0) #2 {
  %2 = alloca ptr, align 8
  %3 = alloca i32, align 4
  %4 = alloca i32, align 4
  store ptr %0, ptr %2, align 8, !tbaa !3
  call void @llvm.lifetime.start.p0(i64 4, ptr %3) #6
  %5 = load ptr, ptr %2, align 8, !tbaa !3
  %6 = getelementptr inbounds nuw %struct._object, ptr %5, i32 0, i32 0
  %7 = getelementptr inbounds nuw %struct.anon, ptr %6, i32 0, i32 0
  %8 = load i32, ptr %7, align 8, !tbaa !8
  store i32 %8, ptr %3, align 4, !tbaa !25
  %9 = load i32, ptr %3, align 4, !tbaa !25
  %10 = icmp slt i32 %9, 0
  br i1 %10, label %11, label %12

11:                                               ; preds = %1
  store i32 1, ptr %4, align 4
  br label %18

12:                                               ; preds = %1
  %13 = load i32, ptr %3, align 4, !tbaa !25
  %14 = add i32 %13, 1
  %15 = load ptr, ptr %2, align 8, !tbaa !3
  %16 = getelementptr inbounds nuw %struct._object, ptr %15, i32 0, i32 0
  %17 = getelementptr inbounds nuw %struct.anon, ptr %16, i32 0, i32 0
  store i32 %14, ptr %17, align 8, !tbaa !8
  store i32 0, ptr %4, align 4
  br label %18

18:                                               ; preds = %12, %11
  call void @llvm.lifetime.end.p0(i64 4, ptr %3) #6
  %19 = load i32, ptr %4, align 4
  switch i32 %19, label %21 [
    i32 0, label %20
    i32 1, label %20
  ]

20:                                               ; preds = %18, %18
  ret void

21:                                               ; preds = %18
  unreachable
}

; Function Attrs: inlinehint nounwind uwtable
define internal ptr @_Py_NewRef(ptr noundef %0) #3 {
  %2 = alloca ptr, align 8
  store ptr %0, ptr %2, align 8, !tbaa !3
  %3 = load ptr, ptr %2, align 8, !tbaa !3
  call void @Py_INCREF(ptr noundef %3)
  %4 = load ptr, ptr %2, align 8, !tbaa !3
  ret ptr %4
}

; Function Attrs: inlinehint nounwind uwtable
define internal ptr @_Py_TYPE(ptr noundef %0) #3 {
  %2 = alloca ptr, align 8
  store ptr %0, ptr %2, align 8, !tbaa !3
  %3 = load ptr, ptr %2, align 8, !tbaa !3
  %4 = getelementptr inbounds nuw %struct._object, ptr %3, i32 0, i32 1
  %5 = load ptr, ptr %4, align 8, !tbaa !35
  ret ptr %5
}

; Function Attrs: inlinehint nounwind uwtable
define internal i32 @Py_IS_TYPE(ptr noundef %0, ptr noundef %1) #3 {
  %3 = alloca ptr, align 8
  %4 = alloca ptr, align 8
  store ptr %0, ptr %3, align 8, !tbaa !3
  store ptr %1, ptr %4, align 8, !tbaa !31
  %5 = load ptr, ptr %3, align 8, !tbaa !3
  %6 = call ptr @_Py_TYPE(ptr noundef %5)
  %7 = load ptr, ptr %4, align 8, !tbaa !31
  %8 = icmp eq ptr %6, %7
  %9 = zext i1 %8 to i32
  ret i32 %9
}

; Function Attrs: nounwind uwtable
define internal i32 @teardown_fire(i32 noundef %0, ptr noundef %1, ptr noundef %2) #0 {
  %4 = alloca i32, align 4
  %5 = alloca i32, align 4
  %6 = alloca ptr, align 8
  %7 = alloca ptr, align 8
  store i32 %0, ptr %5, align 4, !tbaa !25
  store ptr %1, ptr %6, align 8, !tbaa !32
  store ptr %2, ptr %7, align 8, !tbaa !3
  %8 = load i32, ptr %5, align 4, !tbaa !25
  %9 = icmp eq i32 %8, -1
  br i1 %9, label %10, label %11

10:                                               ; preds = %3
  store i32 -1, ptr %4, align 4
  br label %41

11:                                               ; preds = %3
  %12 = load ptr, ptr %7, align 8, !tbaa !3
  %13 = icmp ne ptr %12, null
  br i1 %13, label %14, label %29

14:                                               ; preds = %11
  %15 = call ptr @PyErr_Occurred()
  %16 = icmp ne ptr %15, null
  br i1 %16, label %17, label %18

17:                                               ; preds = %14
  br label %20

18:                                               ; preds = %14
  call void @__assert_fail(ptr noundef @.str.29, ptr noundef @.str.30, i32 noundef 136, ptr noundef @__PRETTY_FUNCTION__.teardown_fire) #7
  unreachable

19:                                               ; No predecessors!
  br label %20

20:                                               ; preds = %19, %17
  %21 = load ptr, ptr %7, align 8, !tbaa !3
  %22 = call ptr @_Py_TYPE(ptr noundef %21)
  %23 = call ptr @PyErr_Occurred()
  %24 = icmp eq ptr %22, %23
  br i1 %24, label %25, label %26

25:                                               ; preds = %20
  br label %28

26:                                               ; preds = %20
  call void @__assert_fail(ptr noundef @.str.34, ptr noundef @.str.30, i32 noundef 137, ptr noundef @__PRETTY_FUNCTION__.teardown_fire) #7
  unreachable

27:                                               ; No predecessors!
  br label %28

28:                                               ; preds = %27, %25
  br label %36

29:                                               ; preds = %11
  %30 = call ptr @PyErr_Occurred()
  %31 = icmp ne ptr %30, null
  br i1 %31, label %33, label %32

32:                                               ; preds = %29
  br label %35

33:                                               ; preds = %29
  call void @__assert_fail(ptr noundef @.str.31, ptr noundef @.str.30, i32 noundef 141, ptr noundef @__PRETTY_FUNCTION__.teardown_fire) #7
  unreachable

34:                                               ; No predecessors!
  br label %35

35:                                               ; preds = %34, %32
  br label %36

36:                                               ; preds = %35, %28
  call void @PyErr_Clear()
  %37 = load ptr, ptr %6, align 8, !tbaa !32
  %38 = getelementptr inbounds nuw %struct._PyMonitoringState, ptr %37, i32 0, i32 0
  %39 = load i8, ptr %38, align 1, !tbaa !27
  %40 = zext i8 %39 to i32
  store i32 %40, ptr %4, align 4
  br label %41

41:                                               ; preds = %36, %10
  %42 = load i32, ptr %4, align 4
  ret i32 %42
}

; Function Attrs: inlinehint nounwind uwtable
define internal i32 @PyMonitoring_FirePyStartEvent(ptr noundef %0, ptr noundef %1, i32 noundef %2) #3 {
  %4 = alloca i32, align 4
  %5 = alloca ptr, align 8
  %6 = alloca ptr, align 8
  %7 = alloca i32, align 4
  store ptr %0, ptr %5, align 8, !tbaa !32
  store ptr %1, ptr %6, align 8, !tbaa !3
  store i32 %2, ptr %7, align 4, !tbaa !25
  %8 = load ptr, ptr %5, align 8, !tbaa !32
  %9 = getelementptr inbounds nuw %struct._PyMonitoringState, ptr %8, i32 0, i32 0
  %10 = load i8, ptr %9, align 1, !tbaa !27
  %11 = icmp ne i8 %10, 0
  br i1 %11, label %12, label %17

12:                                               ; preds = %3
  %13 = load ptr, ptr %5, align 8, !tbaa !32
  %14 = load ptr, ptr %6, align 8, !tbaa !3
  %15 = load i32, ptr %7, align 4, !tbaa !25
  %16 = call i32 @_PyMonitoring_FirePyStartEvent(ptr noundef %13, ptr noundef %14, i32 noundef %15)
  store i32 %16, ptr %4, align 4
  br label %18

17:                                               ; preds = %3
  store i32 0, ptr %4, align 4
  br label %18

18:                                               ; preds = %17, %12
  %19 = load i32, ptr %4, align 4
  ret i32 %19
}

; Function Attrs: nounwind uwtable
define internal ptr @setup_fire(ptr noundef %0, i32 noundef %1, ptr noundef %2) #0 {
  %4 = alloca ptr, align 8
  %5 = alloca ptr, align 8
  %6 = alloca i32, align 4
  %7 = alloca ptr, align 8
  %8 = alloca ptr, align 8
  %9 = alloca ptr, align 8
  store ptr %0, ptr %5, align 8, !tbaa !3
  store i32 %1, ptr %6, align 4, !tbaa !25
  store ptr %2, ptr %7, align 8, !tbaa !3
  %10 = load ptr, ptr %5, align 8, !tbaa !3
  %11 = call i32 @Py_IS_TYPE(ptr noundef %10, ptr noundef @PyCodeLike_Type)
  %12 = icmp ne i32 %11, 0
  br i1 %12, label %20, label %13

13:                                               ; preds = %3
  %14 = load ptr, ptr @PyExc_TypeError, align 8, !tbaa !3
  %15 = load ptr, ptr %5, align 8, !tbaa !3
  %16 = call ptr @_Py_TYPE(ptr noundef %15)
  %17 = getelementptr inbounds nuw %struct._typeobject, ptr %16, i32 0, i32 1
  %18 = load ptr, ptr %17, align 8, !tbaa !37
  %19 = call ptr (ptr, ptr, ...) @PyErr_Format(ptr noundef %14, ptr noundef @.str.32, ptr noundef %18)
  store ptr null, ptr %4, align 8
  br label %47

20:                                               ; preds = %3
  call void @llvm.lifetime.start.p0(i64 8, ptr %8) #6
  %21 = load ptr, ptr %5, align 8, !tbaa !3
  store ptr %21, ptr %8, align 8, !tbaa !9
  %22 = load i32, ptr %6, align 4, !tbaa !25
  %23 = icmp sge i32 %22, 0
  br i1 %23, label %24, label %31

24:                                               ; preds = %20
  %25 = load i32, ptr %6, align 4, !tbaa !25
  %26 = load ptr, ptr %8, align 8, !tbaa !9
  %27 = getelementptr inbounds nuw %struct.PyCodeLikeObject, ptr %26, i32 0, i32 3
  %28 = load i32, ptr %27, align 8, !tbaa !26
  %29 = icmp slt i32 %25, %28
  br i1 %29, label %30, label %31

30:                                               ; preds = %24
  br label %33

31:                                               ; preds = %24, %20
  call void @__assert_fail(ptr noundef @.str.33, ptr noundef @.str.30, i32 noundef 120, ptr noundef @__PRETTY_FUNCTION__.setup_fire) #7
  unreachable

32:                                               ; No predecessors!
  br label %33

33:                                               ; preds = %32, %30
  call void @llvm.lifetime.start.p0(i64 8, ptr %9) #6
  %34 = load ptr, ptr %8, align 8, !tbaa !9
  %35 = getelementptr inbounds nuw %struct.PyCodeLikeObject, ptr %34, i32 0, i32 1
  %36 = load ptr, ptr %35, align 8, !tbaa !10
  %37 = load i32, ptr %6, align 4, !tbaa !25
  %38 = sext i32 %37 to i64
  %39 = getelementptr %struct._PyMonitoringState, ptr %36, i64 %38
  store ptr %39, ptr %9, align 8, !tbaa !32
  %40 = load ptr, ptr %7, align 8, !tbaa !3
  %41 = icmp ne ptr %40, null
  br i1 %41, label %42, label %45

42:                                               ; preds = %33
  %43 = load ptr, ptr %7, align 8, !tbaa !3
  %44 = call ptr @_Py_NewRef(ptr noundef %43)
  call void @PyErr_SetRaisedException(ptr noundef %44)
  br label %45

45:                                               ; preds = %42, %33
  %46 = load ptr, ptr %9, align 8, !tbaa !32
  store ptr %46, ptr %4, align 8
  call void @llvm.lifetime.end.p0(i64 8, ptr %9) #6
  call void @llvm.lifetime.end.p0(i64 8, ptr %8) #6
  br label %47

47:                                               ; preds = %45, %13
  %48 = load ptr, ptr %4, align 8
  ret ptr %48
}

; Function Attrs: nounwind uwtable
define internal ptr @fire_event_py_start(ptr noundef %0, ptr noundef %1) #0 {
  %3 = alloca ptr, align 8
  %4 = alloca ptr, align 8
  %5 = alloca ptr, align 8
  %6 = alloca ptr, align 8
  %7 = alloca i32, align 4
  %8 = alloca i32, align 4
  %9 = alloca ptr, align 8
  %10 = alloca ptr, align 8
  %11 = alloca i32, align 4
  %12 = alloca i32, align 4
  store ptr %0, ptr %4, align 8, !tbaa !3
  store ptr %1, ptr %5, align 8, !tbaa !3
  call void @llvm.lifetime.start.p0(i64 8, ptr %6) #6
  call void @llvm.lifetime.start.p0(i64 4, ptr %7) #6
  %13 = load ptr, ptr %5, align 8, !tbaa !3
  %14 = call i32 (ptr, ptr, ...) @PyArg_ParseTuple(ptr noundef %13, ptr noundef @.str.28, ptr noundef %6, ptr noundef %7)
  %15 = icmp ne i32 %14, 0
  br i1 %15, label %17, label %16

16:                                               ; preds = %2
  store ptr null, ptr %3, align 8
  store i32 1, ptr %8, align 4
  br label %59

17:                                               ; preds = %2
  call void @llvm.lifetime.start.p0(i64 8, ptr %9) #6
  store ptr null, ptr %9, align 8, !tbaa !3
  call void @llvm.lifetime.start.p0(i64 8, ptr %10) #6
  %18 = load ptr, ptr %6, align 8, !tbaa !3
  %19 = load i32, ptr %7, align 4, !tbaa !25
  %20 = load ptr, ptr %9, align 8, !tbaa !3
  %21 = call ptr @setup_fire(ptr noundef %18, i32 noundef %19, ptr noundef %20)
  store ptr %21, ptr %10, align 8, !tbaa !32
  %22 = load ptr, ptr %10, align 8, !tbaa !32
  %23 = icmp eq ptr %22, null
  br i1 %23, label %24, label %25

24:                                               ; preds = %17
  store ptr null, ptr %3, align 8
  store i32 1, ptr %8, align 4
  br label %58

25:                                               ; preds = %17
  call void @llvm.lifetime.start.p0(i64 4, ptr %11) #6
  %26 = load ptr, ptr %10, align 8, !tbaa !32
  %27 = load ptr, ptr %6, align 8, !tbaa !3
  %28 = load i32, ptr %7, align 4, !tbaa !25
  %29 = call i32 @PyMonitoring_FirePyStartEvent(ptr noundef %26, ptr noundef %27, i32 noundef %28)
  store i32 %29, ptr %11, align 4, !tbaa !25
  br label %30

30:                                               ; preds = %25
  call void @llvm.lifetime.start.p0(i64 4, ptr %12) #6
  %31 = load i32, ptr %11, align 4, !tbaa !25
  %32 = load ptr, ptr %10, align 8, !tbaa !32
  %33 = load ptr, ptr %9, align 8, !tbaa !3
  %34 = call i32 @teardown_fire(i32 noundef %31, ptr noundef %32, ptr noundef %33)
  store i32 %34, ptr %12, align 4, !tbaa !25
  %35 = load i32, ptr %12, align 4, !tbaa !25
  %36 = icmp eq i32 %35, -1
  br i1 %36, label %37, label %44

37:                                               ; preds = %30
  %38 = call ptr @PyErr_Occurred()
  %39 = icmp ne ptr %38, null
  br i1 %39, label %40, label %41

40:                                               ; preds = %37
  br label %43

41:                                               ; preds = %37
  call void @__assert_fail(ptr noundef @.str.29, ptr noundef @.str.30, i32 noundef 161, ptr noundef @__PRETTY_FUNCTION__.fire_event_py_start) #7
  unreachable

42:                                               ; No predecessors!
  br label %43

43:                                               ; preds = %42, %40
  store ptr null, ptr %3, align 8
  store i32 1, ptr %8, align 4
  br label %54

44:                                               ; preds = %30
  %45 = call ptr @PyErr_Occurred()
  %46 = icmp ne ptr %45, null
  br i1 %46, label %48, label %47

47:                                               ; preds = %44
  br label %50

48:                                               ; preds = %44
  call void @__assert_fail(ptr noundef @.str.31, ptr noundef @.str.30, i32 noundef 161, ptr noundef @__PRETTY_FUNCTION__.fire_event_py_start) #7
  unreachable

49:                                               ; No predecessors!
  br label %50

50:                                               ; preds = %49, %47
  %51 = load i32, ptr %12, align 4, !tbaa !25
  %52 = sext i32 %51 to i64
  %53 = call ptr @PyLong_FromLong(i64 noundef %52)
  store ptr %53, ptr %3, align 8
  store i32 1, ptr %8, align 4
  br label %54

54:                                               ; preds = %50, %43
  call void @llvm.lifetime.end.p0(i64 4, ptr %12) #6
  br label %57

55:                                               ; No predecessors!
  br label %56

56:                                               ; preds = %55
  store i32 0, ptr %8, align 4
  br label %57

57:                                               ; preds = %56, %54
  call void @llvm.lifetime.end.p0(i64 4, ptr %11) #6
  br label %58

58:                                               ; preds = %57, %24
  call void @llvm.lifetime.end.p0(i64 8, ptr %10) #6
  call void @llvm.lifetime.end.p0(i64 8, ptr %9) #6
  br label %59

59:                                               ; preds = %58, %16
  call void @llvm.lifetime.end.p0(i64 4, ptr %7) #6
  call void @llvm.lifetime.end.p0(i64 8, ptr %6) #6
  %60 = load i32, ptr %8, align 4
  switch i32 %60, label %63 [
    i32 0, label %61
    i32 1, label %61
  ]

61:                                               ; preds = %59, %59
  %62 = load ptr, ptr %3, align 8
  ret ptr %62

63:                                               ; preds = %59
  unreachable
}